; Function Attrs: mustprogress uwtable
define hidden noundef zeroext i1 @_ZN4cvc58internal6theory11quantifiers16SygusGrammarCons9addRuleToEPNS0_11NodeManagerERNS0_12SygusGrammarERKSt3mapINS0_8TypeNodeESt6vectorINS0_12NodeTemplateILb1EEESaISC_EESt4lessIS9_ESaISt4pairIKS9_SE_EEENS0_4kind6Kind_tERKSA_IS9_SaIS9_EE(ptr noundef %0, ptr noundef nonnull align 8 dereferenceable(112) %1, ptr noundef nonnull align 8 captures(address) dereferenceable(48) %2, i32 noundef %3, ptr noundef nonnull readonly align 8 captures(none) dereferenceable(24) %4) local_unnamed_addr #3 align 2 personality ptr @__gxx_personality_v0 {
  %6 = alloca %"class.cvc5::internal::NodeTemplate", align 8
  call void @llvm.lifetime.start.p0(i64 8, ptr nonnull %6) #22
  %7 = load atomic i8, ptr @_ZGVZN4cvc58internal4expr9NodeValue4nullEvE6s_null acquire, align 8
  %8 = icmp eq i8 %7, 0
  br i1 %8, label %9, label %_ZN4cvc58internal12NodeTemplateILb1EEC2Ev.exit, !prof !9

9:                                                ; preds = %5
  %10 = tail call i32 @__cxa_guard_acquire(ptr nonnull @_ZGVZN4cvc58internal4expr9NodeValue4nullEvE6s_null) #22
  %.not.i.i = icmp eq i32 %10, 0
  br i1 %.not.i.i, label %_ZN4cvc58internal12NodeTemplateILb1EEC2Ev.exit, label %11

11:                                               ; preds = %9
  %12 = invoke noalias noundef nonnull dereferenceable(24) ptr @_Znwm(i64 noundef 24) #23
          to label %13 unwind label %15

13:                                               ; preds = %11
  store i64 1152920405095219200, ptr %12, align 8
  %14 = getelementptr inbounds nuw i8, ptr %12, i64 8
  tail call void @llvm.memset.p0.i64(ptr noundef nonnull align 8 dereferenceable(16) %14, i8 0, i64 16, i1 false)
  store ptr %12, ptr @_ZZN4cvc58internal4expr9NodeValue4nullEvE6s_null, align 8, !tbaa !10
  tail call void @__cxa_guard_release(ptr nonnull @_ZGVZN4cvc58internal4expr9NodeValue4nullEvE6s_null) #22
  br label %_ZN4cvc58internal12NodeTemplateILb1EEC2Ev.exit

common.resume:                                    ; preds = %33, %15
  %common.resume.op = phi { ptr, i32 } [ %16, %15 ], [ %34, %33 ]
  resume { ptr, i32 } %common.resume.op

15:                                               ; preds = %11
  %16 = landingpad { ptr, i32 }
          cleanup
  tail call void @__cxa_guard_abort(ptr nonnull @_ZGVZN4cvc58internal4expr9NodeValue4nullEvE6s_null) #22
  br label %common.resume

_ZN4cvc58internal12NodeTemplateILb1EEC2Ev.exit:   ; preds = %5, %9, %13
  %17 = load ptr, ptr @_ZZN4cvc58internal4expr9NodeValue4nullEvE6s_null, align 8, !tbaa !10
  store ptr %17, ptr %6, align 8, !tbaa !3
  %18 = invoke noundef zeroext i1 @_ZN4cvc58internal6theory11quantifiers16SygusGrammarCons9addRuleToEPNS0_11NodeManagerERNS0_12SygusGrammarERKSt3mapINS0_8TypeNodeESt6vectorINS0_12NodeTemplateILb1EEESaISC_EESt4lessIS9_ESaISt4pairIKS9_SE_EEENS0_4kind6Kind_tERKSC_RKSA_IS9_SaIS9_EE(ptr noundef %0, ptr noundef nonnull align 8 dereferenceable(112) %1, ptr noundef nonnull align 8 dereferenceable(48) %2, i32 noundef %3, ptr noundef nonnull align 8 dereferenceable(8) %6, ptr noundef nonnull align 8 dereferenceable(24) %4)
          to label %19 unwind label %33

19:                                               ; preds = %_ZN4cvc58internal12NodeTemplateILb1EEC2Ev.exit
  %20 = load ptr, ptr %6, align 8, !tbaa !3
  %21 = load i64, ptr %20, align 8
  %22 = and i64 %21, 1152920405095219200
  %.not.i.i6 = icmp eq i64 %22, 1152920405095219200
  br i1 %.not.i.i6, label %_ZN4cvc58internal12NodeTemplateILb1EED2Ev.exit, label %23, !prof !16

23:                                               ; preds = %19
  %24 = add i64 %21, 1152920405095219200
  %25 = and i64 %24, 1152920405095219200
  %26 = and i64 %21, -1152920405095219201
  %27 = or disjoint i64 %25, %26
  store i64 %27, ptr %20, align 8
  %28 = icmp eq i64 %25, 0
  br i1 %28, label %29, label %_ZN4cvc58internal12NodeTemplateILb1EED2Ev.exit, !prof !16

29:                                               ; preds = %23
  invoke void @_ZN4cvc58internal4expr9NodeValue15markForDeletionEv(ptr noundef nonnull align 8 dereferenceable(24) %20)
          to label %_ZN4cvc58internal12NodeTemplateILb1EED2Ev.exit unwind label %30

30:                                               ; preds = %29
  %31 = landingpad { ptr, i32 }
          catch ptr null
  %32 = extractvalue { ptr, i32 } %31, 0
  call void @__clang_call_terminate(ptr %32) #24
  unreachable

_ZN4cvc58internal12NodeTemplateILb1EED2Ev.exit:   ; preds = %19, %23, %29
  call void @llvm.lifetime.end.p0(i64 8, ptr nonnull %6) #22
  ret i1 %18

33:                                               ; preds = %_ZN4cvc58internal12NodeTemplateILb1EEC2Ev.exit
  %34 = landingpad { ptr, i32 }
          cleanup
  call void @_ZN4cvc58internal12NodeTemplateILb1EED2Ev(ptr noundef nonnull align 8 dereferenceable(8) %6) #22
  call void @llvm.lifetime.end.p0(i64 8, ptr nonnull %6) #22
  br label %common.resume
}